; Function Attrs: nofree norecurse nosync nounwind memory(readwrite, inaccessiblemem: none) uwtable
define internal void @SDL_Blit_ABGR8888_ARGB8888_Modulate_Scale(ptr noundef captures(none) %0) #0 {
  %2 = getelementptr inbounds nuw i8, ptr %0, i64 112
  %3 = load i32, ptr %2, align 8
  %4 = getelementptr inbounds nuw i8, ptr %0, i64 120
  %5 = load i8, ptr %4, align 8
  %6 = zext i8 %5 to i32
  %7 = getelementptr inbounds nuw i8, ptr %0, i64 121
  %8 = load i8, ptr %7, align 1
  %9 = zext i8 %8 to i32
  %10 = getelementptr inbounds nuw i8, ptr %0, i64 122
  %11 = load i8, ptr %10, align 2
  %12 = zext i8 %11 to i32
  %13 = getelementptr inbounds nuw i8, ptr %0, i64 123
  %14 = load i8, ptr %13, align 1
  %15 = zext i8 %14 to i32
  %16 = getelementptr inbounds nuw i8, ptr %0, i64 20
  %17 = load i32, ptr %16, align 4
  %18 = sext i32 %17 to i64
  %19 = shl nsw i64 %18, 16
  %20 = getelementptr inbounds nuw i8, ptr %0, i64 52
  %21 = load i32, ptr %20, align 4
  %22 = sext i32 %21 to i64
  %23 = udiv i64 %19, %22
  %24 = getelementptr inbounds nuw i8, ptr %0, i64 16
  %25 = load i32, ptr %24, align 8
  %26 = sext i32 %25 to i64
  %27 = shl nsw i64 %26, 16
  %28 = getelementptr inbounds nuw i8, ptr %0, i64 48
  %29 = load i32, ptr %28, align 8
  %30 = sext i32 %29 to i64
  %31 = udiv i64 %27, %30
  %32 = add nsw i32 %21, -1
  store i32 %32, ptr %20, align 4
  %.not77 = icmp eq i32 %21, 0
  br i1 %.not77, label %._crit_edge81, label %.lr.ph80

.lr.ph80:                                         ; preds = %1
  %33 = getelementptr inbounds nuw i8, ptr %0, i64 40
  %34 = lshr i64 %31, 1
  %35 = getelementptr inbounds nuw i8, ptr %0, i64 8
  %36 = getelementptr inbounds nuw i8, ptr %0, i64 24
  %37 = and i32 %3, 1
  %.not72 = icmp eq i32 %37, 0
  %38 = and i32 %3, 2
  %.not73 = icmp eq i32 %38, 0
  %39 = getelementptr inbounds nuw i8, ptr %0, i64 56
  %40 = icmp eq i32 %29, 0
  br i1 %40, label %.lr.ph80.split.us, label %.lr.ph80.split.preheader

.lr.ph80.split.preheader:                         ; preds = %.lr.ph80
  %41 = lshr i64 %23, 1
  br label %.lr.ph80.split

.lr.ph80.split.us:                                ; preds = %.lr.ph80
  %42 = load i32, ptr %39, align 8
  %43 = sext i32 %42 to i64
  %.promoted = load ptr, ptr %33, align 8
  %44 = zext i32 %21 to i64
  %45 = mul nsw i64 %44, %43
  %scevgep = getelementptr i8, ptr %.promoted, i64 %45
  store ptr %scevgep, ptr %33, align 8
  store i32 -1, ptr %20, align 4
  br label %._crit_edge81

.lr.ph80.split:                                   ; preds = %.lr.ph80.split.preheader, %._crit_edge
  %.06978 = phi i64 [ %132, %._crit_edge ], [ %41, %.lr.ph80.split.preheader ]
  %46 = load i32, ptr %28, align 8
  %47 = lshr i64 %.06978, 16
  %.not7174 = icmp eq i32 %46, 0
  br i1 %.not7174, label %._crit_edge, label %.lr.ph

.lr.ph:                                           ; preds = %.lr.ph80.split
  %48 = add nsw i32 %46, -1
  %49 = load ptr, ptr %33, align 8
  br i1 %.not72, label %.lr.ph.split.us, label %.lr.ph.split

.lr.ph.split.us:                                  ; preds = %.lr.ph, %72
  %50 = phi i32 [ %81, %72 ], [ %48, %.lr.ph ]
  %.06776.us = phi ptr [ %80, %72 ], [ %49, %.lr.ph ]
  %.07075.us = phi i64 [ %79, %72 ], [ %34, %.lr.ph ]
  %51 = load ptr, ptr %35, align 8
  %52 = load i32, ptr %36, align 8
  %53 = sext i32 %52 to i64
  %54 = mul i64 %47, %53
  %55 = getelementptr inbounds nuw i8, ptr %51, i64 %54
  %56 = lshr i64 %.07075.us, 14
  %57 = and i64 %56, 1125899906842620
  %58 = getelementptr inbounds nuw i8, ptr %55, i64 %57
  %59 = load i32, ptr %58, align 4
  %60 = lshr i32 %59, 16
  %61 = and i32 %60, 255
  %62 = and i32 %59, 65280
  %63 = lshr i32 %59, 24
  br i1 %.not73, label %72, label %64

64:                                               ; preds = %.lr.ph.split.us
  %65 = mul nuw nsw i32 %63, %15
  %66 = add nuw nsw i32 %65, 1
  %67 = lshr i32 %66, 8
  %68 = and i32 %67, 255
  %69 = add nuw nsw i32 %68, %66
  %70 = lshr i32 %69, 8
  %71 = and i32 %70, 255
  br label %72

72:                                               ; preds = %64, %.lr.ph.split.us
  %.068.us = phi i32 [ %71, %64 ], [ %63, %.lr.ph.split.us ]
  %73 = shl nuw i32 %.068.us, 24
  %74 = shl i32 %59, 16
  %75 = and i32 %74, 16711680
  %76 = or disjoint i32 %73, %75
  %77 = or disjoint i32 %76, %62
  %78 = or disjoint i32 %77, %61
  store i32 %78, ptr %.06776.us, align 4
  %79 = add i64 %.07075.us, %31
  %80 = getelementptr inbounds nuw i8, ptr %.06776.us, i64 4
  %81 = add nsw i32 %50, -1
  %.not71.us = icmp eq i32 %50, 0
  br i1 %.not71.us, label %._crit_edge, label %.lr.ph.split.us, !llvm.loop !265

.lr.ph.split:                                     ; preds = %.lr.ph, %121
  %82 = phi i32 [ %131, %121 ], [ %48, %.lr.ph ]
  %.06776 = phi ptr [ %130, %121 ], [ %49, %.lr.ph ]
  %.07075 = phi i64 [ %129, %121 ], [ %34, %.lr.ph ]
  %83 = load ptr, ptr %35, align 8
  %84 = load i32, ptr %36, align 8
  %85 = sext i32 %84 to i64
  %86 = mul i64 %47, %85
  %87 = getelementptr inbounds nuw i8, ptr %83, i64 %86
  %88 = lshr i64 %.07075, 14
  %89 = and i64 %88, 1125899906842620
  %90 = getelementptr inbounds nuw i8, ptr %87, i64 %89
  %91 = load i32, ptr %90, align 4
  %92 = lshr i32 %91, 16
  %93 = and i32 %92, 255
  %94 = lshr i32 %91, 8
  %95 = and i32 %94, 255
  %96 = and i32 %91, 255
  %97 = lshr i32 %91, 24
  %98 = mul nuw nsw i32 %96, %6
  %99 = add nuw nsw i32 %98, 1
  %100 = mul nuw nsw i32 %95, %9
  %101 = add nuw nsw i32 %100, 1
  %102 = lshr i32 %101, 8
  %103 = and i32 %102, 255
  %104 = add nuw nsw i32 %103, %101
  %105 = and i32 %104, 65280
  %106 = mul nuw nsw i32 %93, %12
  %107 = add nuw nsw i32 %106, 1
  %108 = lshr i32 %107, 8
  %109 = and i32 %108, 255
  %110 = add nuw nsw i32 %109, %107
  %111 = lshr i32 %110, 8
  %112 = and i32 %111, 255
  br i1 %.not73, label %121, label %113

113:                                              ; preds = %.lr.ph.split
  %114 = mul nuw nsw i32 %97, %15
  %115 = add nuw nsw i32 %114, 1
  %116 = lshr i32 %115, 8
  %117 = and i32 %116, 255
  %118 = add nuw nsw i32 %117, %115
  %119 = lshr i32 %118, 8
  %120 = and i32 %119, 255
  br label %121

121:                                              ; preds = %113, %.lr.ph.split
  %.068 = phi i32 [ %120, %113 ], [ %97, %.lr.ph.split ]
  %122 = shl nuw i32 %.068, 24
  %123 = shl nuw nsw i32 %99, 8
  %.mask = and i32 %99, 65280
  %124 = add nuw nsw i32 %.mask, %123
  %125 = and i32 %124, 16711680
  %126 = or disjoint i32 %122, %125
  %127 = or disjoint i32 %126, %105
  %128 = or disjoint i32 %127, %112
  store i32 %128, ptr %.06776, align 4
  %129 = add i64 %.07075, %31
  %130 = getelementptr inbounds nuw i8, ptr %.06776, i64 4
  %131 = add nsw i32 %82, -1
  %.not71 = icmp eq i32 %82, 0
  br i1 %.not71, label %._crit_edge, label %.lr.ph.split, !llvm.loop !265

._crit_edge:                                      ; preds = %121, %72, %.lr.ph80.split
  %132 = add i64 %.06978, %23
  %133 = load i32, ptr %39, align 8
  %134 = load ptr, ptr %33, align 8
  %135 = sext i32 %133 to i64
  %136 = getelementptr inbounds i8, ptr %134, i64 %135
  store ptr %136, ptr %33, align 8
  %137 = load i32, ptr %20, align 4
  %138 = add nsw i32 %137, -1
  store i32 %138, ptr %20, align 4
  %.not = icmp eq i32 %137, 0
  br i1 %.not, label %._crit_edge81, label %.lr.ph80.split, !llvm.loop !266

._crit_edge81:                                    ; preds = %._crit_edge, %.lr.ph80.split.us, %1
  ret void
}